target datalayout = "e-m:e-p270:32:32-p271:32:32-p272:64:64-i64:64-i128:128-f80:128-n8:16:32:64-S128"
target triple = "x86_64-pc-linux-gnu"

%class.CloneMap = type <{ i8, [7 x i8], ptr, i32, [4 x i8] }>
%class.Node = type <{ ptr, ptr, ptr, i32, i32, i32, i32, i32, i32, i32, [4 x i8] }>
%class.NodeCloneInfo = type { i64 }

; Function Attrs: mustprogress nounwind uwtable
define linkonce_odr hidden void @_ZN13NodeCloneInfoC2Eji(ptr noundef nonnull align 8 dereferenceable(8) %0, i32 noundef %1, i32 noundef %2) unnamed_addr #1 comdat align 2 {
  %4 = alloca ptr, align 8
  %5 = alloca i32, align 4
  %6 = alloca i32, align 4
  store ptr %0, ptr %4, align 8
  store i32 %1, ptr %5, align 4
  store i32 %2, ptr %6, align 4
  %7 = load ptr, ptr %4, align 8
  %8 = getelementptr inbounds %class.NodeCloneInfo, ptr %7, i32 0, i32 0
  store i64 0, ptr %8, align 8
  %9 = load i32, ptr %5, align 4
  %10 = load i32, ptr %6, align 4
  call void @_ZN13NodeCloneInfo3setEji(ptr noundef nonnull align 8 dereferenceable(8) %7, i32 noundef %9, i32 noundef %10)
  ret void
}

; Function Attrs: mustprogress nounwind uwtable
define linkonce_odr hidden noundef i32 @_ZNK13NodeCloneInfo3genEv(ptr noundef nonnull align 8 dereferenceable(8) %0) #1 comdat align 2 {
  %2 = alloca ptr, align 8
  store ptr %0, ptr %2, align 8
  %3 = load ptr, ptr %2, align 8
  %4 = getelementptr inbounds %class.NodeCloneInfo, ptr %3, i32 0, i32 0
  %5 = load i64, ptr %4, align 8
  %6 = lshr i64 %5, 32
  %7 = trunc i64 %6 to i32
  ret i32 %7
}

; Function Attrs: mustprogress nounwind uwtable
define linkonce_odr hidden noundef i32 @_ZNK13NodeCloneInfo3idxEv(ptr noundef nonnull align 8 dereferenceable(8) %0) #1 comdat align 2 {
  %2 = alloca ptr, align 8
  store ptr %0, ptr %2, align 8
  %3 = load ptr, ptr %2, align 8
  %4 = getelementptr inbounds %class.NodeCloneInfo, ptr %3, i32 0, i32 0
  %5 = load i64, ptr %4, align 8
  %6 = and i64 %5, 4294967295
  %7 = trunc i64 %6 to i32
  ret i32 %7
}

; Function Attrs: mustprogress nounwind uwtable
define linkonce_odr hidden void @_ZN13NodeCloneInfo7set_genEi(ptr noundef nonnull align 8 dereferenceable(8) %0, i32 noundef %1) #1 comdat align 2 {
  %3 = alloca ptr, align 8
  %4 = alloca i32, align 4
  %5 = alloca i64, align 8
  store ptr %0, ptr %3, align 8
  store i32 %1, ptr %4, align 4
  %6 = load ptr, ptr %3, align 8
  %7 = load i32, ptr %4, align 4
  %8 = sext i32 %7 to i64
  %9 = shl i64 %8, 32
  store i64 %9, ptr %5, align 8
  %10 = getelementptr inbounds %class.NodeCloneInfo, ptr %6, i32 0, i32 0
  %11 = load i64, ptr %10, align 8
  %12 = and i64 %11, 4294967295
  %13 = load i64, ptr %5, align 8
  %14 = or i64 %12, %13
  %15 = getelementptr inbounds %class.NodeCloneInfo, ptr %6, i32 0, i32 0
  store i64 %14, ptr %15, align 8
  ret void
}

; Function Attrs: mustprogress nounwind uwtable
define linkonce_odr hidden void @_ZN13NodeCloneInfo7set_idxEj(ptr noundef nonnull align 8 dereferenceable(8) %0, i32 noundef %1) #1 comdat align 2 {
  %3 = alloca ptr, align 8
  %4 = alloca i32, align 4
  store ptr %0, ptr %3, align 8
  store i32 %1, ptr %4, align 4
  %5 = load ptr, ptr %3, align 8
  %6 = getelementptr inbounds %class.NodeCloneInfo, ptr %5, i32 0, i32 0
  %7 = load i64, ptr %6, align 8
  %8 = and i64 %7, -4294967296
  %9 = load i32, ptr %4, align 4
  %10 = zext i32 %9 to i64
  %11 = or i64 %8, %10
  %12 = getelementptr inbounds %class.NodeCloneInfo, ptr %5, i32 0, i32 0
  store i64 %11, ptr %12, align 8
  ret void
}

; Function Attrs: mustprogress nounwind uwtable
define linkonce_odr hidden noundef ptr @_ZNK8CloneMap3_2pEj(ptr noundef nonnull align 8 dereferenceable(20) %0, i32 noundef %1) #1 comdat align 2 {
  %3 = alloca ptr, align 8
  %4 = alloca i32, align 4
  store ptr %0, ptr %3, align 8
  store i32 %1, ptr %4, align 4
  %5 = load i32, ptr %4, align 4
  %6 = zext i32 %5 to i64
  %7 = inttoptr i64 %6 to ptr
  ret ptr %7
}

; Function Attrs: mustprogress nounwind uwtable
define hidden void @_ZN8CloneMap5cloneEP4NodeS1_i(ptr noundef nonnull align 8 dereferenceable(20) %0, ptr noundef %1, ptr noundef %2, i32 noundef %3) #1 align 2 {
  %5 = alloca ptr, align 8
  %6 = alloca ptr, align 8
  %7 = alloca ptr, align 8
  %8 = alloca i32, align 4
  %9 = alloca i64, align 8
  %10 = alloca %class.NodeCloneInfo, align 8
  %11 = alloca %class.NodeCloneInfo, align 8
  store ptr %0, ptr %5, align 8
  store ptr %1, ptr %6, align 8
  store ptr %2, ptr %7, align 8
  store i32 %3, ptr %8, align 4
  %12 = load ptr, ptr %5, align 8
  %13 = load ptr, ptr %6, align 8
  %14 = getelementptr inbounds %class.Node, ptr %13, i32 0, i32 7
  %15 = load i32, ptr %14, align 8
  %16 = call noundef i64 @_ZNK8CloneMap5valueEj(ptr noundef nonnull align 8 dereferenceable(20) %12, i32 noundef %15)
  store i64 %16, ptr %9, align 8
  %17 = load i64, ptr %9, align 8
  call void @_ZN13NodeCloneInfoC2Em(ptr noundef nonnull align 8 dereferenceable(8) %10, i64 noundef %17)
  %18 = call noundef i32 @_ZNK13NodeCloneInfo3idxEv(ptr noundef nonnull align 8 dereferenceable(8) %10)
  %19 = load i32, ptr %8, align 4
  %20 = call noundef i32 @_ZNK13NodeCloneInfo3genEv(ptr noundef nonnull align 8 dereferenceable(8) %10)
  %21 = add nsw i32 %19, %20
  call void @_ZN13NodeCloneInfoC2Eji(ptr noundef nonnull align 8 dereferenceable(8) %11, i32 noundef %18, i32 noundef %21)
  %22 = load ptr, ptr %7, align 8
  %23 = getelementptr inbounds %class.Node, ptr %22, i32 0, i32 7
  %24 = load i32, ptr %23, align 8
  %25 = call noundef i64 @_ZNK13NodeCloneInfo3getEv(ptr noundef nonnull align 8 dereferenceable(8) %11)
  call void @_ZN8CloneMap6insertEjm(ptr noundef nonnull align 8 dereferenceable(20) %12, i32 noundef %24, i64 noundef %25)
  ret void
}

; Function Attrs: mustprogress nounwind uwtable
define linkonce_odr hidden void @_ZN8CloneMap6insertEjm(ptr noundef nonnull align 8 dereferenceable(20) %0, i32 noundef %1, i64 noundef %2) #1 comdat align 2 {
  %4 = alloca ptr, align 8
  %5 = alloca i32, align 4
  %6 = alloca i64, align 8
  store ptr %0, ptr %4, align 8
  store i32 %1, ptr %5, align 4
  store i64 %2, ptr %6, align 8
  %7 = load ptr, ptr %4, align 8
  %8 = getelementptr inbounds %class.CloneMap, ptr %7, i32 0, i32 2
  %9 = load ptr, ptr %8, align 8
  %10 = load i32, ptr %5, align 4
  %11 = call noundef ptr @_ZNK8CloneMap3_2pEj(ptr noundef nonnull align 8 dereferenceable(20) %7, i32 noundef %10)
  %12 = load i64, ptr %6, align 8
  %13 = inttoptr i64 %12 to ptr
  %14 = call noundef ptr @_ZN4Dict6InsertEPvS0_b(ptr noundef nonnull align 8 dereferenceable(40) %9, ptr noundef %11, ptr noundef %13, i1 noundef zeroext true)
  ret void
}

; Function Attrs: mustprogress nounwind uwtable
define linkonce_odr hidden void @_ZN13NodeCloneInfo3setEji(ptr noundef nonnull align 8 dereferenceable(8) %0, i32 noundef %1, i32 noundef %2) #1 comdat align 2 {
  %4 = alloca ptr, align 8
  %5 = alloca i32, align 4
  %6 = alloca i32, align 4
  store ptr %0, ptr %4, align 8
  store i32 %1, ptr %5, align 4
  store i32 %2, ptr %6, align 4
  %7 = load ptr, ptr %4, align 8
  %8 = load i32, ptr %5, align 4
  call void @_ZN13NodeCloneInfo7set_idxEj(ptr noundef nonnull align 8 dereferenceable(8) %7, i32 noundef %8)
  %9 = load i32, ptr %6, align 4
  call void @_ZN13NodeCloneInfo7set_genEi(ptr noundef nonnull align 8 dereferenceable(8) %7, i32 noundef %9)
  ret void
}

; Function Attrs: mustprogress nounwind uwtable
define linkonce_odr hidden noundef i64 @_ZNK13NodeCloneInfo3getEv(ptr noundef nonnull align 8 dereferenceable(8) %0) #1 comdat align 2 {
  %2 = alloca ptr, align 8
  store ptr %0, ptr %2, align 8
  %3 = load ptr, ptr %2, align 8
  %4 = getelementptr inbounds %class.NodeCloneInfo, ptr %3, i32 0, i32 0
  %5 = load i64, ptr %4, align 8
  ret i64 %5
}

; Function Attrs: mustprogress nounwind uwtable
define linkonce_odr hidden void @_ZN13NodeCloneInfoC2Em(ptr noundef nonnull align 8 dereferenceable(8) %0, i64 noundef %1) unnamed_addr #1 comdat align 2 {
  %3 = alloca ptr, align 8
  %4 = alloca i64, align 8
  store ptr %0, ptr %3, align 8
  store i64 %1, ptr %4, align 8
  %5 = load ptr, ptr %3, align 8
  %6 = getelementptr inbounds %class.NodeCloneInfo, ptr %5, i32 0, i32 0
  %7 = load i64, ptr %4, align 8
  store i64 %7, ptr %6, align 8
  ret void
}

; Function Attrs: mustprogress nounwind uwtable
define linkonce_odr hidden noundef i64 @_ZNK8CloneMap5valueEj(ptr noundef nonnull align 8 dereferenceable(20) %0, i32 noundef %1) #1 comdat align 2 {
  %3 = alloca ptr, align 8
  %4 = alloca i32, align 4
  store ptr %0, ptr %3, align 8
  store i32 %1, ptr %4, align 4
  %5 = load ptr, ptr %3, align 8
  %6 = getelementptr inbounds %class.CloneMap, ptr %5, i32 0, i32 2
  %7 = load ptr, ptr %6, align 8
  %8 = load i32, ptr %4, align 4
  %9 = call noundef ptr @_ZNK8CloneMap3_2pEj(ptr noundef nonnull align 8 dereferenceable(20) %5, i32 noundef %8)
  %10 = call noundef ptr @_ZNK4DictixEPKv(ptr noundef nonnull align 8 dereferenceable(40) %7, ptr noundef %9)
  %11 = ptrtoint ptr %10 to i64
  ret i64 %11
}

; Function Attrs: mustprogress nounwind uwtable
define hidden void @_ZN8CloneMap23verify_insert_and_cloneEP4NodeS1_i(ptr noundef nonnull align 8 dereferenceable(20) %0, ptr noundef %1, ptr noundef %2, i32 noundef %3) #1 align 2 {
  %5 = alloca ptr, align 8
  %6 = alloca ptr, align 8
  %7 = alloca ptr, align 8
  %8 = alloca i32, align 4
  %9 = alloca %class.NodeCloneInfo, align 8
  store ptr %0, ptr %5, align 8
  store ptr %1, ptr %6, align 8
  store ptr %2, ptr %7, align 8
  store i32 %3, ptr %8, align 4
  %10 = load ptr, ptr %5, align 8
  %11 = load ptr, ptr %6, align 8
  %12 = getelementptr inbounds %class.Node, ptr %11, i32 0, i32 7
  %13 = load i32, ptr %12, align 8
  %14 = call noundef i64 @_ZNK8CloneMap5valueEj(ptr noundef nonnull align 8 dereferenceable(20) %10, i32 noundef %13)
  call void @_ZN13NodeCloneInfoC2Em(ptr noundef nonnull align 8 dereferenceable(8) %9, i64 noundef %14)
  %15 = call noundef i64 @_ZNK13NodeCloneInfo3getEv(ptr noundef nonnull align 8 dereferenceable(8) %9)
  %16 = icmp eq i64 %15, 0
  br i1 %16, label %17, label %25

17:                                               ; preds = %4
  %18 = load ptr, ptr %6, align 8
  %19 = getelementptr inbounds %class.Node, ptr %18, i32 0, i32 7
  %20 = load i32, ptr %19, align 8
  call void @_ZN13NodeCloneInfo3setEji(ptr noundef nonnull align 8 dereferenceable(8) %9, i32 noundef %20, i32 noundef 0)
  %21 = load ptr, ptr %6, align 8
  %22 = getelementptr inbounds %class.Node, ptr %21, i32 0, i32 7
  %23 = load i32, ptr %22, align 8
  %24 = call noundef i64 @_ZNK13NodeCloneInfo3getEv(ptr noundef nonnull align 8 dereferenceable(8) %9)
  call void @_ZN8CloneMap6insertEjm(ptr noundef nonnull align 8 dereferenceable(20) %10, i32 noundef %23, i64 noundef %24)
  br label %25

25:                                               ; preds = %17, %4
  %26 = load ptr, ptr %6, align 8
  %27 = load ptr, ptr %7, align 8
  %28 = load i32, ptr %8, align 4
  call void @_ZN8CloneMap5cloneEP4NodeS1_i(ptr noundef nonnull align 8 dereferenceable(20) %10, ptr noundef %26, ptr noundef %27, i32 noundef %28)
  ret void
}