; Function Attrs: mustprogress nounwind uwtable
define hidden void @_ZN8CloneMap23verify_insert_and_cloneEP4NodeS1_i(ptr nocapture noundef nonnull readonly align 8 dereferenceable(20) %0, ptr nocapture noundef readonly %1, ptr nocapture noundef readonly %2, i32 noundef %3) local_unnamed_addr #0 align 2 {
  %5 = getelementptr inbounds i8, ptr %1, i64 40
  %6 = load i32, ptr %5, align 8
  %7 = getelementptr inbounds i8, ptr %0, i64 8
  %8 = load ptr, ptr %7, align 8
  %9 = zext i32 %6 to i64
  %10 = inttoptr i64 %9 to ptr
  %11 = tail call noundef ptr @_ZNK4DictixEPKv(ptr noundef nonnull align 8 dereferenceable(40) %8, ptr noundef %10) #17
  %12 = icmp eq ptr %11, null
  br i1 %12, label %13, label %19

13:                                               ; preds = %4
  %14 = load i32, ptr %5, align 8
  %15 = zext i32 %14 to i64
  %16 = load ptr, ptr %7, align 8
  %17 = inttoptr i64 %15 to ptr
  %18 = tail call noundef ptr @_ZN4Dict6InsertEPvS0_b(ptr noundef nonnull align 8 dereferenceable(40) %16, ptr noundef %17, ptr noundef %17, i1 noundef zeroext true) #17
  br label %19

19:                                               ; preds = %13, %4
  %20 = load i32, ptr %5, align 8
  %21 = load ptr, ptr %7, align 8
  %22 = zext i32 %20 to i64
  %23 = inttoptr i64 %22 to ptr
  %24 = tail call noundef ptr @_ZNK4DictixEPKv(ptr noundef nonnull align 8 dereferenceable(40) %21, ptr noundef %23) #17
  %25 = ptrtoint ptr %24 to i64
  %26 = lshr i64 %25, 32
  %27 = trunc nuw i64 %26 to i32
  %28 = add nsw i32 %27, %3
  %29 = and i64 %25, 4294967295
  %30 = sext i32 %28 to i64
  %31 = shl nsw i64 %30, 32
  %32 = or disjoint i64 %31, %29
  %33 = getelementptr inbounds i8, ptr %2, i64 40
  %34 = load i32, ptr %33, align 8
  %35 = load ptr, ptr %7, align 8
  %36 = zext i32 %34 to i64
  %37 = inttoptr i64 %36 to ptr
  %38 = inttoptr i64 %32 to ptr
  %39 = tail call noundef ptr @_ZN4Dict6InsertEPvS0_b(ptr noundef nonnull align 8 dereferenceable(40) %35, ptr noundef %37, ptr noundef %38, i1 noundef zeroext true) #17
  ret void
}